; Function Attrs: mustprogress nofree norecurse nosync nounwind memory(readwrite, inaccessiblemem: write) uwtable
define internal noundef nonnull ptr @_ZN6evmone8advanced12_GLOBAL__N_12opIXadL_ZNS0_5instr4implILNS_6OpcodeE3EXadL_ZNS_5instr4core3subENS_8StackTopEEEEEvRNS0_22AdvancedExecutionStateEEEEEPKNS0_11InstructionESD_SA_(ptr noundef readnone captures(ret: address, provenance) %0, ptr noundef nonnull align 8 captures(none) dereferenceable(564) %1) #2 {
  %3 = alloca %"struct.intx::uint", align 8
  %4 = getelementptr inbounds nuw i8, ptr %1, i64 552
  %.sroa.0.0.copyload.i = load ptr, ptr %4, align 8, !tbaa !57
  call void @llvm.lifetime.start.p0(ptr nonnull %3)
  %5 = getelementptr inbounds i8, ptr %.sroa.0.0.copyload.i, i64 -32
  %6 = getelementptr inbounds i8, ptr %.sroa.0.0.copyload.i, i64 -64
  call void @llvm.memset.p0.i64(ptr noundef nonnull align 8 dereferenceable(32) %3, i8 0, i64 32, i1 false)
  br label %7

7:                                                ; preds = %7, %2
  %.0.in11.i.i.i.i = phi i1 [ false, %2 ], [ %19, %7 ]
  %.0910.i.i.i.i = phi i64 [ 0, %2 ], [ %21, %7 ]
  %8 = getelementptr inbounds nuw i64, ptr %5, i64 %.0910.i.i.i.i
  %9 = load i64, ptr %8, align 8, !tbaa !59, !noalias !80
  %10 = getelementptr inbounds nuw i64, ptr %6, i64 %.0910.i.i.i.i
  %11 = load i64, ptr %10, align 8, !tbaa !59, !noalias !80
  %12 = zext i1 %.0.in11.i.i.i.i to i64
  %13 = tail call { i64, i1 } @llvm.usub.with.overflow.i64(i64 %9, i64 %11)
  %14 = extractvalue { i64, i1 } %13, 1
  %15 = extractvalue { i64, i1 } %13, 0
  %16 = tail call { i64, i1 } @llvm.usub.with.overflow.i64(i64 %15, i64 %12)
  %17 = extractvalue { i64, i1 } %16, 1
  %18 = extractvalue { i64, i1 } %16, 0
  %19 = or i1 %14, %17
  %20 = getelementptr inbounds nuw i64, ptr %3, i64 %.0910.i.i.i.i
  store i64 %18, ptr %20, align 8
  %21 = add nuw nsw i64 %.0910.i.i.i.i, 1
  %exitcond.not.i.i.i.i = icmp eq i64 %21, 4
  br i1 %exitcond.not.i.i.i.i, label %_ZN6evmone8advanced5instr4implILNS_6OpcodeE3EXadL_ZNS_5instr4core3subENS_8StackTopEEEEEvRNS0_22AdvancedExecutionStateE.exit, label %7, !llvm.loop !85

_ZN6evmone8advanced5instr4implILNS_6OpcodeE3EXadL_ZNS_5instr4core3subENS_8StackTopEEEEEvRNS0_22AdvancedExecutionStateE.exit: ; preds = %7
  call void @llvm.memcpy.p0.p0.i64(ptr noundef nonnull align 8 dereferenceable(32) %6, ptr noundef nonnull align 8 dereferenceable(32) %3, i64 32, i1 false)
  call void @llvm.lifetime.end.p0(ptr nonnull %3)
  %22 = load ptr, ptr %4, align 8, !tbaa !67
  %23 = getelementptr inbounds i8, ptr %22, i64 -32
  call void @llvm.assume(i1 true) [ "align"(ptr %23, i64 32) ]
  %24 = ptrtoint ptr %23 to i64
  store i64 %24, ptr %4, align 8, !tbaa !57
  %25 = getelementptr inbounds nuw i8, ptr %0, i64 16
  ret ptr %25
}